; Function Attrs: nounwind uwtable
define zeroext range(i8 0, 2) i8 @l_Int_Linear_Poly_isValidEq(ptr noundef %0) local_unnamed_addr #1 {
  %2 = ptrtoint ptr %0 to i64
  %3 = and i64 %2, 1
  %.not.i = icmp eq i64 %3, 0
  br i1 %.not.i, label %7, label %4

4:                                                ; preds = %1
  %5 = lshr i64 %2, 1
  %6 = trunc i64 %5 to i32
  br label %lean_obj_tag.exit

7:                                                ; preds = %1
  %8 = getelementptr i8, ptr %0, i64 4
  %.val.i = load i32, ptr %8, align 4
  %9 = lshr i32 %.val.i, 24
  br label %lean_obj_tag.exit

lean_obj_tag.exit:                                ; preds = %4, %7
  %.0.i = phi i32 [ %6, %4 ], [ %9, %7 ]
  %10 = icmp eq i32 %.0.i, 0
  br i1 %10, label %11, label %23

11:                                               ; preds = %lean_obj_tag.exit
  %12 = getelementptr inbounds nuw i8, ptr %0, i64 8
  %13 = load ptr, ptr %12, align 8, !tbaa !11
  %14 = load ptr, ptr @l_Int_Linear_instInhabitedExpr___closed__1, align 8, !tbaa !11
  %15 = ptrtoint ptr %13 to i64
  %16 = ptrtoint ptr %14 to i64
  %17 = and i64 %15, 1
  %18 = and i64 %17, %16
  %or.cond.not.i.i = icmp eq i64 %18, 0
  br i1 %or.cond.not.i.i, label %.critedge.i.i, label %19, !prof !13

19:                                               ; preds = %11
  %20 = icmp eq ptr %13, %14
  br label %lean_int_dec_eq.exit

.critedge.i.i:                                    ; preds = %11
  %21 = tail call zeroext i1 @lean_int_big_eq(ptr noundef %13, ptr noundef %14) #5
  br label %lean_int_dec_eq.exit

lean_int_dec_eq.exit:                             ; preds = %19, %.critedge.i.i
  %.0.i.i = phi i1 [ %20, %19 ], [ %21, %.critedge.i.i ]
  %22 = zext i1 %.0.i.i to i8
  br label %23

23:                                               ; preds = %lean_obj_tag.exit, %lean_int_dec_eq.exit
  %.0 = phi i8 [ %22, %lean_int_dec_eq.exit ], [ 0, %lean_obj_tag.exit ]
  ret i8 %.0
}